ccopy_reg
_reconstructor
p0
(cFWCore.ParameterSet.Config
Process
p1
c__builtin__
object
p2
Ntp3
Rp4
(dp5
S'HcalGeometryFromDBEP'
p6
g0
(cFWCore.ParameterSet.Modules
ESProducer
p7
g2
Ntp8
Rp9
(dp10
S'_Parameterizable__parameterNames'
p11
(lp12
S'applyAlignment'
p13
aS'hcalTopologyConstants'
p14
asS'_isFrozen'
p15
I00
sS'_isModified'
p16
I01
sS'_lineNumber'
p17
I40
sS'_filename'
p18
S'/cvmfs/cms.cern.ch/slc6_amd64_gcc530/cms/cmssw/CMSSW_8_0_29/python/FWCore/ParameterSet/Modules.py'
p19
sg14
g0
(cFWCore.ParameterSet.Types
PSet
p20
g2
Ntp21
Rp22
(dp23
g15
I00
sS'_ParameterTypeBase__isTracked'
p24
I01
sg16
I00
sS'maxDepthHE'
p25
g0
(cFWCore.ParameterSet.Types
int32
p26
g2
Ntp27
Rp28
(dp29
g15
I00
sg24
I01
sS'_value'
p30
I3
sg16
I00
sbsS'maxDepthHB'
p31
g0
(g26
g2
Ntp32
Rp33
(dp34
g15
I00
sg24
I01
sg30
I2
sg16
I00
sbsg11
(lp35
g25
ag31
aS'mode'
p36
asg36
g0
(cFWCore.ParameterSet.Types
string
p37
g2
Ntp38
Rp39
(dp40
g15
I00
sg24
I01
sg30
S'HcalTopologyMode::LHC'
p41
sg16
I00
sbsbsS'_Labelable__label'
p42
g6
sg13
g0
(cFWCore.ParameterSet.Types
bool
p43
g2
Ntp44
Rp45
(dp46
g15
I00
sg24
I01
sg30
I01
sg16
I01
sbsS'_TypedParameterizable__type'
p47
g6
sbsS'MessageLogger'
p48
g0
(cFWCore.ParameterSet.Modules
Service
p49
g2
Ntp50
Rp51
(dp52
g15
I00
sS'suppressInfo'
p53
g0
(cFWCore.ParameterSet.Types
vstring
p54
c__builtin__
list
p55
(lp56
tp57
Rp58
(dp59
g15
I00
sg24
I00
sg16
I00
sS'_nPerLine'
p60
I1
sbsS'suppressDebug'
p61
g0
(g54
g55
(lp62
tp63
Rp64
(dp65
g15
I00
sg24
I00
sg16
I00
sg60
I1
sbsS'cout'
p66
g0
(g20
g2
Ntp67
Rp68
(dp69
g15
I00
sg24
I00
sS'placeholder'
p70
g0
(g43
g2
Ntp71
Rp72
(dp73
g15
I00
sg24
I00
sg30
I01
sg16
I00
sbsg16
I00
sg11
(lp74
g70
asbsg17
I10
sS'debugModules'
p75
g0
(g54
g55
(lp76
tp77
Rp78
(dp79
g15
I00
sg24
I00
sg16
I00
sg60
I1
sbsg47
g48
sS'fwkJobReports'
p80
g0
(g54
g55
(lp81
S'FrameworkJobReport'
p82
atp83
Rp84
(dp85
g15
I00
sg24
I00
sg16
I00
sg60
I1
sbsg11
(lp86
g53
aS'debugs'
p87
ag61
ag66
aS'cerr_stats'
p88
aS'warnings'
p89
aS'default'
p90
aS'statistics'
p91
aS'cerr'
p92
ag82
aS'suppressWarning'
p93
aS'errors'
p94
aS'destinations'
p95
ag75
aS'infos'
p96
aS'categories'
p97
ag80
asg91
g0
(g54
g55
(lp98
g88
atp99
Rp100
(dp101
g15
I00
sg24
I00
sg16
I00
sg60
I1
sbsg18
g19
sg95
g0
(g54
g55
(lp102
g89
ag94
ag96
ag87
ag66
ag92
atp103
Rp104
(dp105
g15
I00
sg24
I00
sg16
I00
sg60
I1
sbsg87
g0
(g20
g2
Ntp106
Rp107
(dp108
g15
I00
sg24
I00
sg70
g0
(g43
g2
Ntp109
Rp110
(dp111
g15
I00
sg24
I00
sg30
I01
sg16
I00
sbsg16
I00
sg11
(lp112
g70
asbsg89
g0
(g20
g2
Ntp113
Rp114
(dp115
g15
I00
sg24
I00
sg70
g0
(g43
g2
Ntp116
Rp117
(dp118
g15
I00
sg24
I00
sg30
I01
sg16
I00
sbsg16
I00
sg11
(lp119
g70
asbsg94
g0
(g20
g2
Ntp120
Rp121
(dp122
g15
I00
sg24
I00
sg70
g0
(g43
g2
Ntp123
Rp124
(dp125
g15
I00
sg24
I00
sg30
I01
sg16
I00
sbsg16
I00
sg11
(lp126
g70
asbsg82
g0
(g20
g2
Ntp127
Rp128
(dp129
g15
I00
sg24
I00
sg16
I00
sg90
g0
(g20
g2
Ntp130
Rp131
(dp132
g15
I00
sg24
I00
sS'limit'
p133
g0
(g26
g2
Ntp134
Rp135
(dp136
g15
I00
sg24
I00
sg30
I0
sg16
I00
sbsg16
I00
sg11
(lp137
g133
asbsS'FwkJob'
p138
g0
(g20
g2
Ntp139
Rp140
(dp141
g15
I00
sg24
I00
sg16
I00
sg133
g0
(g26
g2
Ntp142
Rp143
(dp144
g15
I00
sg24
I00
sg30
I10000000
sg16
I00
sbsg11
(lp145
S'optionalPSet'
p146
ag133
asg146
g0
(g43
g2
Ntp147
Rp148
(dp149
g15
I00
sg24
I00
sg30
I01
sg16
I00
sbsbsg11
(lp150
g90
ag146
ag138
asg146
g0
(g43
g2
Ntp151
Rp152
(dp153
g15
I00
sg24
I00
sg30
I01
sg16
I00
sbsbsg93
g0
(g54
g55
(lp154
tp155
Rp156
(dp157
g15
I00
sg24
I00
sg16
I00
sg60
I1
sbsg96
g0
(g20
g2
Ntp158
Rp159
(dp160
g15
I00
sg24
I00
sg16
I00
sS'Root_NoDictionary'
p161
g0
(g20
g2
Ntp162
Rp163
(dp164
g15
I00
sg24
I00
sg16
I00
sg133
g0
(g26
g2
Ntp165
Rp166
(dp167
g15
I00
sg24
I00
sg30
I0
sg16
I00
sbsg11
(lp168
g146
ag133
asg146
g0
(g43
g2
Ntp169
Rp170
(dp171
g15
I00
sg24
I00
sg30
I01
sg16
I00
sbsbsg11
(lp172
g146
ag161
ag70
asg146
g0
(g43
g2
Ntp173
Rp174
(dp175
g15
I00
sg24
I00
sg30
I01
sg16
I00
sbsg70
g0
(g43
g2
Ntp176
Rp177
(dp178
g15
I00
sg24
I00
sg30
I01
sg16
I00
sbsbsg97
g0
(g54
g55
(lp179
g138
aS'FwkReport'
p180
aS'FwkSummary'
p181
ag161
atp182
Rp183
(dp184
g15
I00
sg24
I00
sg16
I00
sg60
I1
sbsg16
I00
sg88
g0
(g20
g2
Ntp185
Rp186
(dp187
g15
I00
sg24
I00
sg16
I00
sg146
g0
(g43
g2
Ntp188
Rp189
(dp190
g15
I00
sg24
I00
sg30
I01
sg16
I00
sbsg11
(lp191
S'threshold'
p192
aS'output'
p193
ag146
asg192
g0
(g37
g2
Ntp194
Rp195
(dp196
g15
I00
sg24
I00
sg30
S'WARNING'
p197
sg16
I00
sbsg193
g0
(g37
g2
Ntp198
Rp199
(dp200
g15
I00
sg24
I00
sg30
g92
sg16
I00
sbsbsg90
g0
(g20
g2
Ntp201
Rp202
(dp203
g15
I00
sg24
I00
sg16
I00
sg11
(lp204
sbsg92
g0
(g20
g2
Ntp205
Rp206
(dp207
g15
I00
sg24
I00
sS'noTimeStamps'
p208
g0
(g43
g2
Ntp209
Rp210
(dp211
g15
I00
sg24
I00
sg30
I00
sg16
I00
sbsg180
g0
(g20
g2
Ntp212
Rp213
(dp214
g15
I00
sg24
I00
sg16
I01
sS'reportEvery'
p215
g0
(g26
g2
Ntp216
Rp217
(dp218
g15
I00
sg24
I00
sg30
I100
sg16
I01
sbsg133
g0
(g26
g2
Ntp219
Rp220
(dp221
g15
I00
sg24
I00
sg30
I10000000
sg16
I00
sbsg11
(lp222
g215
ag146
ag133
asg146
g0
(g43
g2
Ntp223
Rp224
(dp225
g15
I00
sg24
I00
sg30
I01
sg16
I00
sbsbsg16
I00
sg90
g0
(g20
g2
Ntp226
Rp227
(dp228
g15
I00
sg24
I00
sg133
g0
(g26
g2
Ntp229
Rp230
(dp231
g15
I00
sg24
I00
sg30
I10000000
sg16
I00
sbsg16
I00
sg11
(lp232
g133
asbsg161
g0
(g20
g2
Ntp233
Rp234
(dp235
g15
I00
sg24
I00
sg16
I00
sg133
g0
(g26
g2
Ntp236
Rp237
(dp238
g15
I00
sg24
I00
sg30
I0
sg16
I00
sbsg11
(lp239
g146
ag133
asg146
g0
(g43
g2
Ntp240
Rp241
(dp242
g15
I00
sg24
I00
sg30
I01
sg16
I00
sbsbsS'INFO'
p243
g0
(g20
g2
Ntp244
Rp245
(dp246
g15
I00
sg24
I00
sg133
g0
(g26
g2
Ntp247
Rp248
(dp249
g15
I00
sg24
I00
sg30
I0
sg16
I00
sbsg16
I00
sg11
(lp250
g133
asbsg146
g0
(g43
g2
Ntp251
Rp252
(dp253
g15
I00
sg24
I00
sg30
I01
sg16
I00
sbsg138
g0
(g20
g2
Ntp254
Rp255
(dp256
g15
I00
sg24
I00
sg16
I00
sg133
g0
(g26
g2
Ntp257
Rp258
(dp259
g15
I00
sg24
I00
sg30
I0
sg16
I00
sbsg11
(lp260
g146
ag133
asg146
g0
(g43
g2
Ntp261
Rp262
(dp263
g15
I00
sg24
I00
sg30
I01
sg16
I00
sbsbsg181
g0
(g20
g2
Ntp264
Rp265
(dp266
g15
I00
sg24
I00
sg16
I00
sg215
g0
(g26
g2
Ntp267
Rp268
(dp269
g15
I00
sg24
I00
sg30
I1
sg16
I00
sbsg133
g0
(g26
g2
Ntp270
Rp271
(dp272
g15
I00
sg24
I00
sg30
I10000000
sg16
I00
sbsg11
(lp273
g215
ag146
ag133
asg146
g0
(g43
g2
Ntp274
Rp275
(dp276
g15
I00
sg24
I00
sg30
I01
sg16
I00
sbsbsg11
(lp277
g243
ag208
ag180
ag90
ag161
ag192
ag138
ag181
ag146
asg192
g0
(g37
g2
Ntp278
Rp279
(dp280
g15
I00
sg24
I00
sg30
g243
sg16
I00
sbsbsbsS'CaloGeometryBuilder'
p281
g0
(g7
g2
Ntp282
Rp283
(dp284
g11
(lp285
S'SelectedCalos'
p286
asg15
I00
sg16
I00
sg17
I40
sg18
g19
sg286
g0
(g54
g55
(lp287
S'HCAL'
p288
aS'ZDC'
p289
aS'CASTOR'
p290
aS'EcalBarrel'
p291
aS'EcalEndcap'
p292
aS'EcalPreshower'
p293
aS'TOWER'
p294
atp295
Rp296
(dp297
g15
I00
sg24
I01
sg16
I00
sg60
I1
sbsg42
g281
sg47
g281
sbsS'p'
p298
g0
(cFWCore.ParameterSet.SequenceTypes
Path
p299
g2
Ntp300
Rp301
(dp302
g15
I00
sS'_seq'
p303
g0
(cFWCore.ParameterSet.SequenceTypes
_SequenceCollection
p304
g2
Ntp305
Rp306
(dp307
S'_collection'
p308
(lp309
g0
(cFWCore.ParameterSet.Modules
EDAnalyzer
p310
g2
Ntp311
Rp312
(dp313
g11
(lp314
S'dedx'
p315
aS'triggerResults'
p316
aS'primaryVertices'
p317
aS'met'
p318
aS'tracks'
p319
aS'metFilters'
p320
aS'isMC'
p321
aS'muons'
p322
aS'genparticles'
p323
aS'jets'
p324
asg15
I00
sg16
I00
sg315
g0
(cFWCore.ParameterSet.Types
InputTag
p325
g2
Ntp326
Rp327
(dp328
g15
I00
sg24
I01
sg16
I00
sS'_InputTag__moduleLabel'
p329
S'dedxHitInfo'
p330
sS'_InputTag__processName'
p331
S'RECO'
p332
sS'_InputTag__productInstance'
p333
S''
p334
sbsg18
S'/afs/cern.ch/work/v/vannerom/FCP/CMSSW_8_0_29/src/AnalyzerArea/FCPTreeMaker/python/ConfFile_cfg.py'
p335
sg42
S'demo'
p336
sg317
g0
(g325
g2
Ntp337
Rp338
(dp339
g15
I00
sg24
I01
sg16
I00
sg329
S'offlinePrimaryVertices'
p340
sg331
g332
sg333
g334
sbsg318
g0
(g325
g2
Ntp341
Rp342
(dp343
g15
I00
sg24
I01
sg16
I00
sg329
S'pfMet'
p344
sg331
g332
sg333
g334
sbsg319
g0
(g325
g2
Ntp345
Rp346
(dp347
g15
I00
sg24
I01
sg16
I00
sg329
S'generalTracks'
p348
sg331
g332
sg333
g334
sbsg17
I87
sg321
g0
(g43
g2
Ntp349
Rp350
(dp351
g15
I00
sg24
I01
sg30
I00
sg16
I00
sbsg322
g0
(g325
g2
Ntp352
Rp353
(dp354
g15
I00
sg24
I01
sg16
I00
sg329
g322
sg331
g332
sg333
g334
sbsg316
g0
(g325
g2
Ntp355
Rp356
(dp357
g15
I00
sg24
I01
sg16
I00
sg329
S'TriggerResults'
p358
sg331
S'HLT'
p359
sg333
g334
sbsg320
g0
(g325
g2
Ntp360
Rp361
(dp362
g15
I00
sg24
I01
sg16
I00
sg329
g358
sg331
g332
sg333
g334
sbsg323
g0
(g325
g2
Ntp363
Rp364
(dp365
g15
I00
sg24
I01
sg16
I00
sg329
S'genParticles'
p366
sg331
g359
sg333
g334
sbsg324
g0
(g325
g2
Ntp367
Rp368
(dp369
g15
I00
sg24
I01
sg16
I00
sg329
S'ak4PFJetsCHS'
p370
sg331
g332
sg333
g334
sbsg47
S'FCPTreeMaker'
p371
sbasbsg16
I00
sg42
g298
sbsS'_Process__sequences'
p372
(dp373
sS'siStripBackPlaneCorrectionDepESProducer'
p374
g0
(g7
g2
Ntp375
Rp376
(dp377
g11
(lp378
S'LatencyRecord'
p379
aS'BackPlaneCorrectionDeconvMode'
p380
aS'BackPlaneCorrectionPeakMode'
p381
asg15
I00
sg16
I00
sg17
I40
sg18
g19
sg379
g0
(g20
g2
Ntp382
Rp383
(dp384
g15
I00
sg24
I01
sg16
I00
sS'label'
p385
g0
(g37
g2
Ntp386
Rp387
(dp388
g15
I00
sg24
I00
sg30
g334
sg16
I00
sbsS'record'
p389
g0
(g37
g2
Ntp390
Rp391
(dp392
g15
I00
sg24
I01
sg30
S'SiStripLatencyRcd'
p393
sg16
I00
sbsg11
(lp394
g389
ag385
asbsg381
g0
(g20
g2
Ntp395
Rp396
(dp397
g15
I00
sg24
I01
sg16
I00
sg385
g0
(g37
g2
Ntp398
Rp399
(dp400
g15
I00
sg24
I00
sg30
S'peak'
p401
sg16
I00
sbsg389
g0
(g37
g2
Ntp402
Rp403
(dp404
g15
I00
sg24
I01
sg30
S'SiStripBackPlaneCorrectionRcd'
p405
sg16
I00
sbsg11
(lp406
g389
ag385
asbsg42
g374
sg380
g0
(g20
g2
Ntp407
Rp408
(dp409
g15
I00
sg24
I01
sg16
I00
sg385
g0
(g37
g2
Ntp410
Rp411
(dp412
g15
I00
sg24
I00
sg30
S'deconvolution'
p413
sg16
I00
sbsg389
g0
(g37
g2
Ntp414
Rp415
(dp416
g15
I00
sg24
I01
sg30
g405
sg16
I00
sbsg11
(lp417
g389
ag385
asbsg47
S'SiStripBackPlaneCorrectionDepESProducer'
p418
sbsg336
g312
sS'_Process__services'
p419
(dp420
g48
g51
sS'DQMStore'
p421
g0
(g49
g2
Ntp422
Rp423
(dp424
g11
(lp425
S'referenceFileName'
p426
aS'verbose'
p427
aS'collateHistograms'
p428
aS'enableMultiThread'
p429
aS'forceResetOnBeginLumi'
p430
aS'LSbasedMode'
p431
aS'verboseQT'
p432
asg15
I00
sg427
g0
(g26
g2
Ntp433
Rp434
(dp435
g15
I00
sg24
I00
sg30
I0
sg16
I00
sbsg428
g0
(g43
g2
Ntp436
Rp437
(dp438
g15
I00
sg24
I00
sg30
I00
sg16
I00
sbsg426
g0
(g37
g2
Ntp439
Rp440
(dp441
g15
I00
sg24
I00
sg30
g334
sg16
I00
sbsg429
g0
(g43
g2
Ntp442
Rp443
(dp444
g15
I00
sg24
I00
sg30
I00
sg16
I00
sbsg430
g0
(g43
g2
Ntp445
Rp446
(dp447
g15
I00
sg24
I00
sg30
I00
sg16
I00
sbsg17
I10
sg431
g0
(g43
g2
Ntp448
Rp449
(dp450
g15
I00
sg24
I00
sg30
I00
sg16
I00
sbsg18
g19
sg432
g0
(g26
g2
Ntp451
Rp452
(dp453
g15
I00
sg24
I00
sg30
I0
sg16
I00
sbsg47
g421
sg16
I00
sbsS'RandomNumberGeneratorService'
p454
g0
(g49
g2
Ntp455
Rp456
(dp457
g15
I00
sS'horeco'
p458
g0
(g20
g2
Ntp459
Rp460
(dp461
g15
I00
sg24
I01
sg16
I00
sS'initialSeed'
p462
g0
(cFWCore.ParameterSet.Types
uint32
p463
g2
Ntp464
Rp465
(dp466
g15
I00
sg24
I00
sg30
I541321
sg16
I00
sbsg11
(lp467
g462
aS'engineName'
p468
asg468
g0
(g37
g2
Ntp469
Rp470
(dp471
g15
I00
sg24
I00
sg30
S'TRandom3'
p472
sg16
I00
sbsbsg17
I10
sS'paramMuons'
p473
g0
(g20
g2
Ntp474
Rp475
(dp476
g15
I00
sg24
I01
sg16
I00
sg462
g0
(g463
g2
Ntp477
Rp478
(dp479
g15
I00
sg24
I00
sg30
I54525
sg16
I00
sbsg11
(lp480
g462
ag468
asg468
g0
(g37
g2
Ntp481
Rp482
(dp483
g15
I00
sg24
I00
sg30
g472
sg16
I00
sbsbsS'saveFileName'
p484
g0
(g37
g2
Ntp485
Rp486
(dp487
g15
I00
sg24
I00
sg30
g334
sg16
I00
sbsS'hbhereco'
p488
g0
(g20
g2
Ntp489
Rp490
(dp491
g15
I00
sg24
I01
sg16
I00
sg462
g0
(g463
g2
Ntp492
Rp493
(dp494
g15
I00
sg24
I00
sg30
I541321
sg16
I00
sbsg11
(lp495
g462
ag468
asg468
g0
(g37
g2
Ntp496
Rp497
(dp498
g15
I00
sg24
I00
sg30
g472
sg16
I00
sbsbsS'simSiStripDigiSimLink'
p499
g0
(g20
g2
Ntp500
Rp501
(dp502
g15
I00
sg24
I01
sg16
I00
sg462
g0
(g463
g2
Ntp503
Rp504
(dp505
g15
I00
sg24
I00
sg30
I1234567
sg16
I00
sbsg11
(lp506
g462
ag468
asg468
g0
(g37
g2
Ntp507
Rp508
(dp509
g15
I00
sg24
I00
sg30
S'HepJamesRandom'
p510
sg16
I00
sbsbsS'externalLHEProducer'
p511
g0
(g20
g2
Ntp512
Rp513
(dp514
g15
I00
sg24
I01
sg16
I00
sg462
g0
(g463
g2
Ntp515
Rp516
(dp517
g15
I00
sg24
I00
sg30
I234567
sg16
I00
sbsg11
(lp518
g462
ag468
asg468
g0
(g37
g2
Ntp519
Rp520
(dp521
g15
I00
sg24
I00
sg30
g510
sg16
I00
sbsbsS'famosPileUp'
p522
g0
(g20
g2
Ntp523
Rp524
(dp525
g15
I00
sg24
I01
sg16
I00
sg462
g0
(g463
g2
Ntp526
Rp527
(dp528
g15
I00
sg24
I00
sg30
I918273
sg16
I00
sbsg11
(lp529
g462
ag468
asg468
g0
(g37
g2
Ntp530
Rp531
(dp532
g15
I00
sg24
I00
sg30
g472
sg16
I00
sbsbsS'simMuonDTDigis'
p533
g0
(g20
g2
Ntp534
Rp535
(dp536
g15
I00
sg24
I01
sg16
I00
sg462
g0
(g463
g2
Ntp537
Rp538
(dp539
g15
I00
sg24
I00
sg30
I1234567
sg16
I00
sbsg11
(lp540
g462
ag468
asg468
g0
(g37
g2
Ntp541
Rp542
(dp543
g15
I00
sg24
I00
sg30
g510
sg16
I00
sbsbsg47
g454
sS'siTrackerGaussianSmearingRecHits'
p544
g0
(g20
g2
Ntp545
Rp546
(dp547
g15
I00
sg24
I01
sg16
I00
sg462
g0
(g463
g2
Ntp548
Rp549
(dp550
g15
I00
sg24
I00
sg30
I24680
sg16
I00
sbsg11
(lp551
g462
ag468
asg468
g0
(g37
g2
Ntp552
Rp553
(dp554
g15
I00
sg24
I00
sg30
g472
sg16
I00
sbsbsg11
(lp555
g458
ag473
ag484
ag488
ag499
ag511
ag522
ag533
ag544
aS'ecalPreshowerRecHit'
p556
aS'generator'
p557
aS'simMuonRPCDigis'
p558
aS'hiSignal'
p559
aS'mixSimCaloHits'
p560
aS'mix'
p561
aS'VtxSmeared'
p562
aS'LHCTransport'
p563
aS'ecalRecHit'
p564
aS'hfreco'
p565
aS'mixRecoTracks'
p566
aS'hiSignalG4SimHits'
p567
aS'famosSimHits'
p568
aS'MuonSimHits'
p569
aS'g4SimHits'
p570
aS'hiSignalLHCTransport'
p571
aS'mixGenPU'
p572
aS'l1ParamMuons'
p573
aS'simBeamSpotFilter'
p574
aS'simMuonCSCDigis'
p575
aS'mixData'
p576
asg556
g0
(g20
g2
Ntp577
Rp578
(dp579
g15
I00
sg24
I01
sg16
I00
sg462
g0
(g463
g2
Ntp580
Rp581
(dp582
g15
I00
sg24
I00
sg30
I6541321
sg16
I00
sbsg11
(lp583
g462
ag468
asg468
g0
(g37
g2
Ntp584
Rp585
(dp586
g15
I00
sg24
I00
sg30
g472
sg16
I00
sbsbsg557
g0
(g20
g2
Ntp587
Rp588
(dp589
g15
I00
sg24
I01
sg16
I00
sg462
g0
(g463
g2
Ntp590
Rp591
(dp592
g15
I00
sg24
I00
sg30
I123456789
sg16
I00
sbsg11
(lp593
g462
ag468
asg468
g0
(g37
g2
Ntp594
Rp595
(dp596
g15
I00
sg24
I00
sg30
g510
sg16
I00
sbsbsg558
g0
(g20
g2
Ntp597
Rp598
(dp599
g15
I00
sg24
I01
sg16
I00
sg462
g0
(g463
g2
Ntp600
Rp601
(dp602
g15
I00
sg24
I00
sg30
I1234567
sg16
I00
sbsg11
(lp603
g462
ag468
asg468
g0
(g37
g2
Ntp604
Rp605
(dp606
g15
I00
sg24
I00
sg30
g510
sg16
I00
sbsbsg559
g0
(g20
g2
Ntp607
Rp608
(dp609
g15
I00
sg24
I01
sg16
I00
sg462
g0
(g463
g2
Ntp610
Rp611
(dp612
g15
I00
sg24
I00
sg30
I123456789
sg16
I00
sbsg11
(lp613
g462
ag468
asg468
g0
(g37
g2
Ntp614
Rp615
(dp616
g15
I00
sg24
I00
sg30
g510
sg16
I00
sbsbsg560
g0
(g20
g2
Ntp617
Rp618
(dp619
g15
I00
sg24
I01
sg16
I00
sg462
g0
(g463
g2
Ntp620
Rp621
(dp622
g15
I00
sg24
I00
sg30
I918273
sg16
I00
sbsg11
(lp623
g462
ag468
asg468
g0
(g37
g2
Ntp624
Rp625
(dp626
g15
I00
sg24
I00
sg30
g472
sg16
I00
sbsbsg561
g0
(g20
g2
Ntp627
Rp628
(dp629
g15
I00
sg24
I01
sg16
I00
sg462
g0
(g463
g2
Ntp630
Rp631
(dp632
g15
I00
sg24
I00
sg30
I12345
sg16
I00
sbsg11
(lp633
g462
ag468
asg468
g0
(g37
g2
Ntp634
Rp635
(dp636
g15
I00
sg24
I00
sg30
g510
sg16
I00
sbsbsg562
g0
(g20
g2
Ntp637
Rp638
(dp639
g15
I00
sg24
I01
sg16
I00
sg462
g0
(g463
g2
Ntp640
Rp641
(dp642
g15
I00
sg24
I00
sg30
I98765432
sg16
I00
sbsg11
(lp643
g462
ag468
asg468
g0
(g37
g2
Ntp644
Rp645
(dp646
g15
I00
sg24
I00
sg30
g510
sg16
I00
sbsbsg563
g0
(g20
g2
Ntp647
Rp648
(dp649
g15
I00
sg24
I01
sg16
I00
sg462
g0
(g463
g2
Ntp650
Rp651
(dp652
g15
I00
sg24
I00
sg30
I87654321
sg16
I00
sbsg11
(lp653
g462
ag468
asg468
g0
(g37
g2
Ntp654
Rp655
(dp656
g15
I00
sg24
I00
sg30
g472
sg16
I00
sbsbsg564
g0
(g20
g2
Ntp657
Rp658
(dp659
g15
I00
sg24
I01
sg16
I00
sg462
g0
(g463
g2
Ntp660
Rp661
(dp662
g15
I00
sg24
I00
sg30
I654321
sg16
I00
sbsg11
(lp663
g462
ag468
asg468
g0
(g37
g2
Ntp664
Rp665
(dp666
g15
I00
sg24
I00
sg30
g472
sg16
I00
sbsbsg576
g0
(g20
g2
Ntp667
Rp668
(dp669
g15
I00
sg24
I01
sg16
I00
sg462
g0
(g463
g2
Ntp670
Rp671
(dp672
g15
I00
sg24
I00
sg30
I12345
sg16
I00
sbsg11
(lp673
g462
ag468
asg468
g0
(g37
g2
Ntp674
Rp675
(dp676
g15
I00
sg24
I00
sg30
g510
sg16
I00
sbsbsg566
g0
(g20
g2
Ntp677
Rp678
(dp679
g15
I00
sg24
I01
sg16
I00
sg462
g0
(g463
g2
Ntp680
Rp681
(dp682
g15
I00
sg24
I00
sg30
I918273
sg16
I00
sbsg11
(lp683
g462
ag468
asg468
g0
(g37
g2
Ntp684
Rp685
(dp686
g15
I00
sg24
I00
sg30
g472
sg16
I00
sbsbsg567
g0
(g20
g2
Ntp687
Rp688
(dp689
g15
I00
sg24
I01
sg16
I00
sg462
g0
(g463
g2
Ntp690
Rp691
(dp692
g15
I00
sg24
I00
sg30
I11
sg16
I00
sbsg11
(lp693
g462
ag468
asg468
g0
(g37
g2
Ntp694
Rp695
(dp696
g15
I00
sg24
I00
sg30
g510
sg16
I00
sbsbsg568
g0
(g20
g2
Ntp697
Rp698
(dp699
g15
I00
sg24
I01
sg16
I00
sg462
g0
(g463
g2
Ntp700
Rp701
(dp702
g15
I00
sg24
I00
sg30
I13579
sg16
I00
sbsg11
(lp703
g462
ag468
asg468
g0
(g37
g2
Ntp704
Rp705
(dp706
g15
I00
sg24
I00
sg30
g472
sg16
I00
sbsbsg569
g0
(g20
g2
Ntp707
Rp708
(dp709
g15
I00
sg24
I01
sg16
I00
sg462
g0
(g463
g2
Ntp710
Rp711
(dp712
g15
I00
sg24
I00
sg30
I987346
sg16
I00
sbsg11
(lp713
g462
ag468
asg468
g0
(g37
g2
Ntp714
Rp715
(dp716
g15
I00
sg24
I00
sg30
g472
sg16
I00
sbsbsg570
g0
(g20
g2
Ntp717
Rp718
(dp719
g15
I00
sg24
I01
sg16
I00
sg462
g0
(g463
g2
Ntp720
Rp721
(dp722
g15
I00
sg24
I00
sg30
I11
sg16
I00
sbsg11
(lp723
g462
ag468
asg468
g0
(g37
g2
Ntp724
Rp725
(dp726
g15
I00
sg24
I00
sg30
g510
sg16
I00
sbsbsg571
g0
(g20
g2
Ntp727
Rp728
(dp729
g15
I00
sg24
I01
sg16
I00
sg462
g0
(g463
g2
Ntp730
Rp731
(dp732
g15
I00
sg24
I00
sg30
I88776655
sg16
I00
sbsg11
(lp733
g462
ag468
asg468
g0
(g37
g2
Ntp734
Rp735
(dp736
g15
I00
sg24
I00
sg30
g472
sg16
I00
sbsbsg572
g0
(g20
g2
Ntp737
Rp738
(dp739
g15
I00
sg24
I01
sg16
I00
sg462
g0
(g463
g2
Ntp740
Rp741
(dp742
g15
I00
sg24
I00
sg30
I918273
sg16
I00
sbsg11
(lp743
g462
ag468
asg468
g0
(g37
g2
Ntp744
Rp745
(dp746
g15
I00
sg24
I00
sg30
g472
sg16
I00
sbsbsg573
g0
(g20
g2
Ntp747
Rp748
(dp749
g15
I00
sg24
I01
sg16
I00
sg462
g0
(g463
g2
Ntp750
Rp751
(dp752
g15
I00
sg24
I00
sg30
I6453209
sg16
I00
sbsg11
(lp753
g462
ag468
asg468
g0
(g37
g2
Ntp754
Rp755
(dp756
g15
I00
sg24
I00
sg30
g472
sg16
I00
sbsbsg16
I00
sg574
g0
(g20
g2
Ntp757
Rp758
(dp759
g15
I00
sg24
I01
sg16
I00
sg462
g0
(g463
g2
Ntp760
Rp761
(dp762
g15
I00
sg24
I00
sg30
I87654321
sg16
I00
sbsg11
(lp763
g462
ag468
asg468
g0
(g37
g2
Ntp764
Rp765
(dp766
g15
I00
sg24
I00
sg30
g510
sg16
I00
sbsbsg575
g0
(g20
g2
Ntp767
Rp768
(dp769
g15
I00
sg24
I01
sg16
I00
sg462
g0
(g463
g2
Ntp770
Rp771
(dp772
g15
I00
sg24
I00
sg30
I11223344
sg16
I00
sbsg11
(lp773
g462
ag468
asg468
g0
(g37
g2
Ntp774
Rp775
(dp776
g15
I00
sg24
I00
sg30
g510
sg16
I00
sbsbsg565
g0
(g20
g2
Ntp777
Rp778
(dp779
g15
I00
sg24
I01
sg16
I00
sg462
g0
(g463
g2
Ntp780
Rp781
(dp782
g15
I00
sg24
I00
sg30
I541321
sg16
I00
sbsg11
(lp783
g462
ag468
asg468
g0
(g37
g2
Ntp784
Rp785
(dp786
g15
I00
sg24
I00
sg30
g472
sg16
I00
sbsbsg18
g19
sbsS'TFileService'
p787
g0
(g49
g2
Ntp788
Rp789
(dp790
g11
(lp791
S'fileName'
p792
asg15
I00
sg16
I00
sg17
I10
sg18
g19
sg792
g0
(g37
g2
Ntp793
Rp794
(dp795
g15
I00
sg24
I01
sg30
S'tuple.root'
p796
sg16
I00
sbsg47
g787
sbssS'siStripQualityESProducer'
p797
g0
(g7
g2
Ntp798
Rp799
(dp800
g11
(lp801
S'appendToDataLabel'
p802
aS'PrintDebugOutput'
p803
aS'ThresholdForReducedGranularity'
p804
aS'UseEmptyRunInfo'
p805
aS'ReduceGranularity'
p806
aS'ListOfRecordToMerge'
p807
asg15
I00
sg802
g0
(g37
g2
Ntp808
Rp809
(dp810
g15
I00
sg24
I01
sg30
g334
sg16
I00
sbsg16
I01
sg17
I40
sg18
g19
sg804
g0
(cFWCore.ParameterSet.Types
double
p811
g2
Ntp812
Rp813
(dp814
g15
I00
sg24
I01
sg30
F0.3
sg16
I00
sbsg42
g797
sg805
g0
(g43
g2
Ntp815
Rp816
(dp817
g15
I00
sg24
I01
sg30
I00
sg16
I00
sbsg806
g0
(g43
g2
Ntp818
Rp819
(dp820
g15
I00
sg24
I01
sg30
I00
sg16
I00
sbsg807
g0
(cFWCore.ParameterSet.Types
VPSet
p821
g55
(lp822
g0
(g20
g2
Ntp823
Rp824
(dp825
g15
I00
sg24
I01
sg16
I00
sg389
g0
(g37
g2
Ntp826
Rp827
(dp828
g15
I00
sg24
I01
sg30
S'SiStripDetVOffRcd'
p829
sg16
I00
sbsS'tag'
p830
g0
(g37
g2
Ntp831
Rp832
(dp833
g15
I00
sg24
I01
sg30
g334
sg16
I00
sbsg11
(lp834
g389
ag830
asbag0
(g20
g2
Ntp835
Rp836
(dp837
g15
I00
sg24
I01
sg16
I00
sg389
g0
(g37
g2
Ntp838
Rp839
(dp840
g15
I00
sg24
I01
sg30
S'SiStripDetCablingRcd'
p841
sg16
I00
sbsg830
g0
(g37
g2
Ntp842
Rp843
(dp844
g15
I00
sg24
I01
sg30
g334
sg16
I00
sbsg11
(lp845
g389
ag830
asbag0
(g20
g2
Ntp846
Rp847
(dp848
g15
I00
sg24
I01
sg16
I00
sg389
g0
(g37
g2
Ntp849
Rp850
(dp851
g15
I00
sg24
I01
sg30
S'RunInfoRcd'
p852
sg16
I00
sbsg830
g0
(g37
g2
Ntp853
Rp854
(dp855
g15
I00
sg24
I01
sg30
g334
sg16
I00
sbsg11
(lp856
g389
ag830
asbag0
(g20
g2
Ntp857
Rp858
(dp859
g15
I00
sg24
I01
sg16
I00
sg389
g0
(g37
g2
Ntp860
Rp861
(dp862
g15
I00
sg24
I01
sg30
S'SiStripBadChannelRcd'
p863
sg16
I00
sbsg830
g0
(g37
g2
Ntp864
Rp865
(dp866
g15
I00
sg24
I01
sg30
g334
sg16
I00
sbsg11
(lp867
g389
ag830
asbag0
(g20
g2
Ntp868
Rp869
(dp870
g15
I00
sg24
I01
sg16
I00
sg389
g0
(g37
g2
Ntp871
Rp872
(dp873
g15
I00
sg24
I01
sg30
S'SiStripBadFiberRcd'
p874
sg16
I00
sbsg830
g0
(g37
g2
Ntp875
Rp876
(dp877
g15
I00
sg24
I01
sg30
g334
sg16
I00
sbsg11
(lp878
g389
ag830
asbag0
(g20
g2
Ntp879
Rp880
(dp881
g15
I00
sg24
I01
sg16
I00
sg389
g0
(g37
g2
Ntp882
Rp883
(dp884
g15
I00
sg24
I01
sg30
S'SiStripBadModuleRcd'
p885
sg16
I00
sbsg830
g0
(g37
g2
Ntp886
Rp887
(dp888
g15
I00
sg24
I01
sg30
g334
sg16
I00
sbsg11
(lp889
g389
ag830
asbag0
(g20
g2
Ntp890
Rp891
(dp892
g15
I00
sg24
I01
sg16
I00
sg389
g0
(g37
g2
Ntp893
Rp894
(dp895
g15
I00
sg24
I01
sg30
S'SiStripBadStripRcd'
p896
sg16
I00
sbsg830
g0
(g37
g2
Ntp897
Rp898
(dp899
g15
I00
sg24
I01
sg30
g334
sg16
I00
sbsg11
(lp900
g389
ag830
asbatp901
Rp902
(dp903
g15
I00
sg24
I01
sg16
I00
sg60
I1
sbsg47
S'SiStripQualityESProducer'
p904
sg803
g0
(g43
g2
Ntp905
Rp906
(dp907
g15
I00
sg24
I01
sg30
I00
sg16
I00
sbsbsg421
g423
sS'DTGeometryESModule'
p908
g0
(g7
g2
Ntp909
Rp910
(dp911
g11
(lp912
g802
aS'fromDDD'
p913
ag13
aS'alignmentsLabel'
p914
asg15
I00
sg802
g0
(g37
g2
Ntp915
Rp916
(dp917
g15
I00
sg24
I01
sg30
g334
sg16
I00
sbsg16
I00
sg914
g0
(g37
g2
Ntp918
Rp919
(dp920
g15
I00
sg24
I01
sg30
g334
sg16
I00
sbsg18
g19
sg17
I40
sg42
g908
sg913
g0
(g43
g2
Ntp921
Rp922
(dp923
g15
I00
sg24
I01
sg30
I00
sg16
I00
sbsg13
g0
(g43
g2
Ntp924
Rp925
(dp926
g15
I00
sg24
I01
sg30
I01
sg16
I00
sbsg47
g908
sbsS'_Process__source'
p927
g0
(cFWCore.ParameterSet.Modules
Source
p928
g2
Ntp929
Rp930
(dp931
g11
(lp932
S'fileNames'
p933
asg15
I00
sg16
I00
sg17
I175
sg18
g19
sg933
g0
(g54
g55
(lp934
S'/store/data/Run2016H/SingleMuon/AOD/07Aug17-v1/910001/FAD5C0BF-368F-E711-858D-F04DA275BFA7.root '
p935
atp936
Rp937
(dp938
g15
I00
sg24
I00
sg16
I00
sg60
I1
sbsg47
S'PoolSource'
p939
sbsS'VolumeBasedMagneticFieldESProducer'
p940
g0
(g7
g2
Ntp941
Rp942
(dp943
g11
(lp944
S'valueOverride'
p945
aS'debugBuilder'
p946
ag385
asg15
I00
sg945
g0
(g26
g2
Ntp947
Rp948
(dp949
g15
I00
sg24
I01
sg30
I18268
sg16
I01
sbsg17
I40
sg18
g19
sg385
g0
(g37
g2
Ntp950
Rp951
(dp952
g15
I00
sg24
I00
sg30
g334
sg16
I00
sbsg946
g0
(g43
g2
Ntp953
Rp954
(dp955
g15
I00
sg24
I00
sg30
I00
sg16
I00
sbsg42
g940
sg47
S'VolumeBasedMagneticFieldESProducerFromDB'
p956
sg16
I01
sbsS'_Process__aliases'
p957
(dp958
sS'eegeom'
p959
g0
(cFWCore.ParameterSet.Modules
ESSource
p960
g2
Ntp961
Rp962
(dp963
g11
(lp964
S'iovIsRunNotTime'
p965
aS'recordName'
p966
aS'firstValid'
p967
asg15
I00
sg16
I00
sg17
I6
sg966
g0
(g37
g2
Ntp968
Rp969
(dp970
g15
I00
sg24
I01
sg30
S'EcalMappingRcd'
p971
sg16
I00
sbsg18
S'/cvmfs/cms.cern.ch/slc6_amd64_gcc530/cms/cmssw/CMSSW_8_0_29/python/Geometry/EcalMapping/EcalMappingRecord_cfi.py'
p972
sg967
g0
(cFWCore.ParameterSet.Types
vuint32
p973
g55
(lp974
I1
atp975
Rp976
(dp977
g15
I00
sg24
I01
sg16
I00
sbsg42
g959
sg965
g0
(g43
g2
Ntp978
Rp979
(dp980
g15
I00
sg24
I01
sg30
I01
sg16
I00
sbsg47
S'EmptyESSource'
p981
sbsS'CastorGeometryFromDBEP'
p982
g0
(g7
g2
Ntp983
Rp984
(dp985
g11
(lp986
g13
asg15
I00
sg16
I00
sg17
I40
sg18
g19
sg42
g982
sg13
g0
(g43
g2
Ntp987
Rp988
(dp989
g15
I00
sg24
I01
sg30
I00
sg16
I00
sbsg47
g982
sbsS'CaloTopologyBuilder'
p990
g0
(g7
g2
Ntp991
Rp992
(dp993
g11
(lp994
sg15
I00
sg16
I00
sg17
I40
sg18
g19
sg42
g990
sg47
g990
sbsS'GlobalTrackingGeometryESProducer'
p995
g0
(g7
g2
Ntp996
Rp997
(dp998
g11
(lp999
sg15
I00
sg16
I00
sg17
I40
sg18
g19
sg42
g995
sg47
g995
sbsS'XMLFromDBSource'
p1000
g0
(g7
g2
Ntp1001
Rp1002
(dp1003
g11
(lp1004
S'rootDDName'
p1005
ag385
asg15
I00
sg16
I00
sg17
I40
sg18
g19
sg1005
g0
(g37
g2
Ntp1006
Rp1007
(dp1008
g15
I00
sg24
I01
sg30
S'cms:OCMS'
p1009
sg16
I00
sbsg385
g0
(g37
g2
Ntp1010
Rp1011
(dp1012
g15
I00
sg24
I01
sg30
S'Extended'
p1013
sg16
I00
sbsg42
g1000
sg47
S'XMLIdealGeometryESProducer'
p1014
sbsS'trackerGeometryDB'
p1015
g0
(g7
g2
Ntp1016
Rp1017
(dp1018
g11
(lp1019
g802
ag913
ag13
ag914
asg15
I00
sg802
g0
(g37
g2
Ntp1020
Rp1021
(dp1022
g15
I00
sg24
I01
sg30
g334
sg16
I00
sbsg16
I00
sg914
g0
(g37
g2
Ntp1023
Rp1024
(dp1025
g15
I00
sg24
I01
sg30
g334
sg16
I00
sbsg18
g19
sg17
I40
sg42
g1015
sg913
g0
(g43
g2
Ntp1026
Rp1027
(dp1028
g15
I00
sg24
I01
sg30
I00
sg16
I00
sbsg13
g0
(g43
g2
Ntp1029
Rp1030
(dp1031
g15
I00
sg24
I01
sg30
I01
sg16
I00
sbsg47
S'TrackerDigiGeometryESModule'
p1032
sbsS'stripCPEESProducer'
p1033
g0
(g7
g2
Ntp1034
Rp1035
(dp1036
g11
(lp1037
S'ComponentType'
p1038
aS'ComponentName'
p1039
aS'parameters'
p1040
asg15
I00
sg16
I00
sg1040
g0
(g20
g2
Ntp1041
Rp1042
(dp1043
g15
I00
sg24
I01
sg16
I00
sg11
(lp1044
sbsg17
I40
sg1039
g0
(g37
g2
Ntp1045
Rp1046
(dp1047
g15
I00
sg24
I01
sg30
S'stripCPE'
p1048
sg16
I00
sbsg1038
g0
(g37
g2
Ntp1049
Rp1050
(dp1051
g15
I00
sg24
I01
sg30
S'SimpleStripCPE'
p1052
sg16
I00
sbsg18
g19
sg42
g1033
sg47
S'StripCPEESProducer'
p1053
sbsS'MuonNumberingInitialization'
p1054
g0
(g7
g2
Ntp1055
Rp1056
(dp1057
g11
(lp1058
sg15
I00
sg16
I00
sg17
I40
sg18
g19
sg42
g1054
sg47
g1054
sbsS'siStripLorentzAngleDepESProducer'
p1059
g0
(g7
g2
Ntp1060
Rp1061
(dp1062
g11
(lp1063
g379
aS'LorentzAngleDeconvMode'
p1064
aS'LorentzAnglePeakMode'
p1065
asg15
I00
sg16
I00
sg17
I40
sg18
g19
sg379
g0
(g20
g2
Ntp1066
Rp1067
(dp1068
g15
I00
sg24
I01
sg16
I00
sg385
g0
(g37
g2
Ntp1069
Rp1070
(dp1071
g15
I00
sg24
I00
sg30
g334
sg16
I00
sbsg389
g0
(g37
g2
Ntp1072
Rp1073
(dp1074
g15
I00
sg24
I01
sg30
g393
sg16
I00
sbsg11
(lp1075
g389
ag385
asbsg42
g1059
sg1065
g0
(g20
g2
Ntp1076
Rp1077
(dp1078
g15
I00
sg24
I01
sg16
I00
sg385
g0
(g37
g2
Ntp1079
Rp1080
(dp1081
g15
I00
sg24
I00
sg30
g401
sg16
I00
sbsg389
g0
(g37
g2
Ntp1082
Rp1083
(dp1084
g15
I00
sg24
I01
sg30
S'SiStripLorentzAngleRcd'
p1085
sg16
I00
sbsg11
(lp1086
g389
ag385
asbsg47
S'SiStripLorentzAngleDepESProducer'
p1087
sg1064
g0
(g20
g2
Ntp1088
Rp1089
(dp1090
g15
I00
sg24
I01
sg16
I00
sg385
g0
(g37
g2
Ntp1091
Rp1092
(dp1093
g15
I00
sg24
I00
sg30
g413
sg16
I00
sbsg389
g0
(g37
g2
Ntp1094
Rp1095
(dp1096
g15
I00
sg24
I01
sg30
g1085
sg16
I00
sbsg11
(lp1097
g389
ag385
asbsbsS'hcalTopologyIdeal'
p1098
g0
(g7
g2
Ntp1099
Rp1100
(dp1101
g11
(lp1102
S'Exclude'
p1103
ag802
asg15
I00
sg802
g0
(g37
g2
Ntp1104
Rp1105
(dp1106
g15
I00
sg24
I01
sg30
g334
sg16
I00
sbsg16
I00
sg17
I40
sg18
g19
sg42
g1098
sg1103
g0
(g37
g2
Ntp1107
Rp1108
(dp1109
g15
I00
sg24
I00
sg30
g334
sg16
I00
sbsg47
S'HcalTopologyIdealEP'
p1110
sbsS'_Process__psets'
p1111
(dp1112
S'maxEvents'
p1113
g0
(g20
g2
Ntp1114
Rp1115
(dp1116
g15
I00
sg24
I00
sg16
I00
sg11
(lp1117
S'input'
p1118
asg42
g1113
sg1118
g0
(g26
g2
Ntp1119
Rp1120
(dp1121
g15
I00
sg24
I00
sg30
I-1
sg16
I00
sbsbssS'hcal_db_producer'
p1122
g0
(g7
g2
Ntp1123
Rp1124
(dp1125
g11
(lp1126
S'file'
p1127
aS'dump'
p1128
asg15
I00
sg16
I00
sg1128
g0
(g54
g55
(lp1129
g334
atp1130
Rp1131
(dp1132
g15
I00
sg24
I00
sg16
I00
sg60
I1
sbsg17
I40
sg18
g19
sg1127
g0
(g37
g2
Ntp1133
Rp1134
(dp1135
g15
I00
sg24
I00
sg30
g334
sg16
I00
sbsg42
g1122
sg47
S'HcalDbProducer'
p1136
sbsg787
g789
sS'_Process__essources'
p1137
(dp1138
S'HepPDTESSource'
p1139
g0
(g960
g2
Ntp1140
Rp1141
(dp1142
g11
(lp1143
S'pdtFileName'
p1144
asg15
I00
sg1144
g0
(cFWCore.ParameterSet.Types
FileInPath
p1145
g2
Ntp1146
Rp1147
(dp1148
g15
I00
sg24
I01
sg30
S'SimGeneral/HepPDTESSource/data/pythiaparticle.tbl'
p1149
sg16
I00
sbsg16
I00
sg17
I4
sg18
S'/cvmfs/cms.cern.ch/slc6_amd64_gcc530/cms/cmssw/CMSSW_8_0_29/python/SimGeneral/HepPDTESSource/pythiapdt_cfi.py'
p1150
sg42
g1139
sg47
g1139
sbsS'es_hardcode'
p1151
g0
(g960
g2
Ntp1152
Rp1153
(dp1154
g11
(lp1155
S'HERecalibration'
p1156
aS'toGet'
p1157
aS'GainWidthsForTrigPrims'
p1158
aS'HEreCalibCutoff'
p1159
aS'HFRecalibration'
p1160
aS'iLumi'
p1161
aS'testHFQIE10'
p1162
asg15
I00
sg16
I00
sg17
I18
sg1156
g0
(g43
g2
Ntp1163
Rp1164
(dp1165
g15
I00
sg24
I01
sg30
I00
sg16
I00
sbsg1157
g0
(g54
g55
(lp1166
S'GainWidths'
p1167
atp1168
Rp1169
(dp1170
g15
I00
sg24
I00
sg16
I00
sg60
I1
sbsg1158
g0
(g43
g2
Ntp1171
Rp1172
(dp1173
g15
I00
sg24
I01
sg30
I00
sg16
I00
sbsg1159
g0
(g811
g2
Ntp1174
Rp1175
(dp1176
g15
I00
sg24
I01
sg30
F20.0
sg16
I00
sbsg1160
g0
(g43
g2
Ntp1177
Rp1178
(dp1179
g15
I00
sg24
I01
sg30
I00
sg16
I00
sbsg18
S'/cvmfs/cms.cern.ch/slc6_amd64_gcc530/cms/cmssw/CMSSW_8_0_29/python/CalibCalorimetry/HcalPlugins/Hcal_Conditions_forGlobalTag_cff.py'
p1180
sg42
g1151
sg1161
g0
(g811
g2
Ntp1181
Rp1182
(dp1183
g15
I00
sg24
I01
sg30
F-1.0
sg16
I00
sbsg1162
g0
(g43
g2
Ntp1184
Rp1185
(dp1186
g15
I00
sg24
I01
sg30
I00
sg16
I00
sbsg47
S'HcalHardcodeCalibrations'
p1187
sbsg959
g962
sS'GlobalTag'
p1188
g0
(g960
g2
Ntp1189
Rp1190
(dp1191
g11
(lp1192
S'DBParameters'
p1193
aS'connect'
p1194
aS'globaltag'
p1195
aS'RefreshEachRun'
p1196
aS'pfnPrefix'
p1197
aS'snapshotTime'
p1198
ag1157
aS'pfnPostfix'
p1199
aS'RefreshAlways'
p1200
aS'ReconnectEachRun'
p1201
aS'RefreshOpenIOVs'
p1202
aS'DumpStat'
p1203
asg15
I00
sg18
S'/cvmfs/cms.cern.ch/slc6_amd64_gcc530/cms/cmssw/CMSSW_8_0_29/python/CondCore/ESSources/CondDBESSource_cfi.py'
p1204
sg16
I01
sg1195
g0
(g37
g2
Ntp1205
Rp1206
(dp1207
g15
I00
sg24
I01
sg30
S'80X_dataRun2_2016LegacyRepro_v4'
p1208
sg16
I01
sbsg1196
g0
(g43
g2
Ntp1209
Rp1210
(dp1211
g15
I00
sg24
I00
sg30
I00
sg16
I00
sbsg1197
g0
(g37
g2
Ntp1212
Rp1213
(dp1214
g15
I00
sg24
I00
sg30
g334
sg16
I00
sbsg1198
g0
(g37
g2
Ntp1215
Rp1216
(dp1217
g15
I00
sg24
I01
sg30
g334
sg16
I00
sbsg1157
g0
(g821
g55
(lp1218
tp1219
Rp1220
(dp1221
g15
I00
sg24
I01
sg16
I00
sg60
I1
sbsg1199
g0
(g37
g2
Ntp1222
Rp1223
(dp1224
g15
I00
sg24
I00
sg30
g334
sg16
I00
sbsg1193
g0
(g20
g2
Ntp1225
Rp1226
(dp1227
g15
I00
sg24
I01
sS'authenticationPath'
p1228
g0
(g37
g2
Ntp1229
Rp1230
(dp1231
g15
I00
sg24
I00
sg30
g334
sg16
I00
sbsg16
I00
sS'messageLevel'
p1232
g0
(g26
g2
Ntp1233
Rp1234
(dp1235
g15
I00
sg24
I00
sg30
I0
sg16
I00
sbsg11
(lp1236
g1232
aS'security'
p1237
aS'authenticationSystem'
p1238
ag1228
asg1237
g0
(g37
g2
Ntp1239
Rp1240
(dp1241
g15
I00
sg24
I00
sg30
g334
sg16
I00
sbsg1238
g0
(g26
g2
Ntp1242
Rp1243
(dp1244
g15
I00
sg24
I00
sg30
I0
sg16
I00
sbsbsg1200
g0
(g43
g2
Ntp1245
Rp1246
(dp1247
g15
I00
sg24
I00
sg30
I00
sg16
I00
sbsg17
I19
sg1194
g0
(g37
g2
Ntp1248
Rp1249
(dp1250
g15
I00
sg24
I01
sg30
S'frontier://FrontierProd/CMS_CONDITIONS'
p1251
sg16
I00
sbsg1201
g0
(g43
g2
Ntp1252
Rp1253
(dp1254
g15
I00
sg24
I00
sg30
I00
sg16
I00
sbsg42
g1188
sg1202
g0
(g43
g2
Ntp1255
Rp1256
(dp1257
g15
I00
sg24
I00
sg30
I00
sg16
I00
sbsg1203
g0
(g43
g2
Ntp1258
Rp1259
(dp1260
g15
I00
sg24
I00
sg30
I00
sg16
I00
sbsg47
S'PoolDBESSource'
p1261
sbssS'HcalAlignmentEP'
p1262
g0
(g7
g2
Ntp1263
Rp1264
(dp1265
g11
(lp1266
sg15
I00
sg16
I00
sg17
I40
sg18
g19
sg42
g1262
sg47
g1262
sbsS'EcalPreshowerGeometryFromDBEP'
p1267
g0
(g7
g2
Ntp1268
Rp1269
(dp1270
g11
(lp1271
g13
asg15
I00
sg16
I01
sg17
I40
sg18
g19
sg42
g1267
sg13
g0
(g43
g2
Ntp1272
Rp1273
(dp1274
g15
I00
sg24
I01
sg30
I01
sg16
I01
sbsg47
g1267
sbsS'randomEngineStateProducer'
p1275
g0
(cFWCore.ParameterSet.Modules
EDProducer
p1276
g2
Ntp1277
Rp1278
(dp1279
g11
(lp1280
sg15
I00
sg16
I00
sg17
I170
sg18
S'/cvmfs/cms.cern.ch/slc6_amd64_gcc530/cms/cmssw/CMSSW_8_0_29/python/IOMC/RandomEngine/IOMC_cff.py'
p1281
sg42
g1275
sg47
S'RandomEngineStateProducer'
p1282
sbsS'hcalDDDRecConstants'
p1283
g0
(g7
g2
Ntp1284
Rp1285
(dp1286
g11
(lp1287
g802
asg15
I00
sg802
g0
(g37
g2
Ntp1288
Rp1289
(dp1290
g15
I00
sg24
I01
sg30
g334
sg16
I00
sbsg16
I00
sg17
I40
sg18
g19
sg42
g1283
sg47
S'HcalDDDRecConstantsESModule'
p1291
sbsS'CastorDbProducer'
p1292
g0
(g7
g2
Ntp1293
Rp1294
(dp1295
g11
(lp1296
sg15
I00
sg16
I00
sg17
I40
sg18
g19
sg42
g1292
sg47
g1292
sbsg1113
g1115
sS'source'
p1297
g930
sS'CSCGeometryESModule'
p1298
g0
(g7
g2
Ntp1299
Rp1300
(dp1301
g11
(lp1302
g802
aS'useDDD'
p1303
aS'debugV'
p1304
aS'useGangedStripsInME1a'
p1305
ag914
aS'useOnlyWiresInME1a'
p1306
aS'useRealWireGeometry'
p1307
aS'useCentreTIOffsets'
p1308
ag13
asg15
I00
sg802
g0
(g37
g2
Ntp1309
Rp1310
(dp1311
g15
I00
sg24
I01
sg30
g334
sg16
I00
sbsg16
I00
sg1304
g0
(g43
g2
Ntp1312
Rp1313
(dp1314
g15
I00
sg24
I00
sg30
I00
sg16
I00
sbsg18
g19
sg1305
g0
(g43
g2
Ntp1315
Rp1316
(dp1317
g15
I00
sg24
I01
sg30
I01
sg16
I00
sbsg914
g0
(g37
g2
Ntp1318
Rp1319
(dp1320
g15
I00
sg24
I01
sg30
g334
sg16
I00
sbsg1306
g0
(g43
g2
Ntp1321
Rp1322
(dp1323
g15
I00
sg24
I01
sg30
I00
sg16
I00
sbsg1303
g0
(g43
g2
Ntp1324
Rp1325
(dp1326
g15
I00
sg24
I01
sg30
I00
sg16
I00
sbsg17
I40
sg1308
g0
(g43
g2
Ntp1327
Rp1328
(dp1329
g15
I00
sg24
I01
sg30
I00
sg16
I00
sbsg42
g1298
sg1307
g0
(g43
g2
Ntp1330
Rp1331
(dp1332
g15
I00
sg24
I01
sg30
I01
sg16
I00
sbsg13
g0
(g43
g2
Ntp1333
Rp1334
(dp1335
g15
I00
sg24
I01
sg30
I01
sg16
I00
sbsg47
g1298
sbsS'MuonDetLayerGeometryESProducer'
p1336
g0
(g7
g2
Ntp1337
Rp1338
(dp1339
g11
(lp1340
sg15
I00
sg16
I00
sg17
I40
sg18
g19
sg42
g1336
sg47
g1336
sbsS'EcalBarrelGeometryFromDBEP'
p1341
g0
(g7
g2
Ntp1342
Rp1343
(dp1344
g11
(lp1345
g13
asg15
I00
sg16
I01
sg17
I40
sg18
g19
sg42
g1341
sg13
g0
(g43
g2
Ntp1346
Rp1347
(dp1348
g15
I00
sg24
I01
sg30
I01
sg16
I01
sbsg47
g1341
sbsS'_Process__vpsets'
p1349
(dp1350
sg454
g456
sS'_Process__name'
p1351
S'Demo'
p1352
sS'sistripconn'
p1353
g0
(g7
g2
Ntp1354
Rp1355
(dp1356
g11
(lp1357
sg15
I00
sg16
I00
sg17
I40
sg18
g19
sg42
g1353
sg47
S'SiStripConnectivity'
p1358
sbsg1151
g1153
sS'EcalTrigTowerConstituentsMapBuilder'
p1359
g0
(g7
g2
Ntp1360
Rp1361
(dp1362
g11
(lp1363
S'MapFile'
p1364
asg15
I00
sg16
I00
sg1364
g0
(g37
g2
Ntp1365
Rp1366
(dp1367
g15
I00
sg24
I00
sg30
S'Geometry/EcalMapping/data/EndCap_TTMap.txt'
p1368
sg16
I00
sbsg18
g19
sg17
I40
sg42
g1359
sg47
g1359
sbsS'trackerNumberingGeometryDB'
p1369
g0
(g7
g2
Ntp1370
Rp1371
(dp1372
g11
(lp1373
g802
ag913
asg15
I00
sg802
g0
(g37
g2
Ntp1374
Rp1375
(dp1376
g15
I00
sg24
I01
sg30
g334
sg16
I00
sbsg16
I00
sg17
I40
sg18
g19
sg42
g1369
sg913
g0
(g43
g2
Ntp1377
Rp1378
(dp1379
g15
I00
sg24
I01
sg30
I00
sg16
I00
sbsg47
S'TrackerGeometricDetESModule'
p1380
sbsS'idealForDigiCSCGeometry'
p1381
g0
(g7
g2
Ntp1382
Rp1383
(dp1384
g11
(lp1385
g802
ag1303
ag1304
ag1305
ag914
ag1306
ag1307
ag1308
ag13
asg15
I00
sg802
g0
(g37
g2
Ntp1386
Rp1387
(dp1388
g15
I00
sg24
I01
sg30
S'idealForDigi'
p1389
sg16
I01
sbsg16
I01
sg1304
g0
(g43
g2
Ntp1390
Rp1391
(dp1392
g15
I00
sg24
I00
sg30
I00
sg16
I00
sbsg18
S'/cvmfs/cms.cern.ch/slc6_amd64_gcc530/cms/cmssw/CMSSW_8_0_29/python/Geometry/CSCGeometryBuilder/idealForDigiCscGeometryDB_cff.py'
p1393
sg1305
g0
(g43
g2
Ntp1394
Rp1395
(dp1396
g15
I00
sg24
I01
sg30
I01
sg16
I00
sbsg914
g0
(g37
g2
Ntp1397
Rp1398
(dp1399
g15
I00
sg24
I01
sg30
S'fakeForIdeal'
p1400
sg16
I01
sbsg1306
g0
(g43
g2
Ntp1401
Rp1402
(dp1403
g15
I00
sg24
I01
sg30
I00
sg16
I00
sbsg1303
g0
(g43
g2
Ntp1404
Rp1405
(dp1406
g15
I00
sg24
I01
sg30
I00
sg16
I00
sbsg17
I8
sg1308
g0
(g43
g2
Ntp1407
Rp1408
(dp1409
g15
I00
sg24
I01
sg30
I00
sg16
I00
sbsg42
g1381
sg1307
g0
(g43
g2
Ntp1410
Rp1411
(dp1412
g15
I00
sg24
I01
sg30
I01
sg16
I00
sbsg13
g0
(g43
g2
Ntp1413
Rp1414
(dp1415
g15
I00
sg24
I01
sg30
I00
sg16
I01
sbsg47
g1298
sbsS'CaloTowerGeometryFromDBEP'
p1416
g0
(g7
g2
Ntp1417
Rp1418
(dp1419
g11
(lp1420
g13
ag14
asg15
I00
sg16
I01
sg17
I40
sg18
g19
sg14
g0
(g20
g2
Ntp1421
Rp1422
(dp1423
g15
I00
sg24
I01
sg16
I00
sg25
g0
(g26
g2
Ntp1424
Rp1425
(dp1426
g15
I00
sg24
I01
sg30
I3
sg16
I00
sbsg31
g0
(g26
g2
Ntp1427
Rp1428
(dp1429
g15
I00
sg24
I01
sg30
I2
sg16
I00
sbsg11
(lp1430
g25
ag31
ag36
asg36
g0
(g37
g2
Ntp1431
Rp1432
(dp1433
g15
I00
sg24
I01
sg30
g41
sg16
I00
sbsbsg42
g1416
sg13
g0
(g43
g2
Ntp1434
Rp1435
(dp1436
g15
I00
sg24
I01
sg30
I00
sg16
I00
sbsg47
g1416
sbsS'_Process__subProcesses'
p1437
(lp1438
sS'_cloneToObjectDict'
p1439
(dp1440
I140351180549904
g1017
sI140351180596176
g984
sI140351180280848
g799
sI140351180223120
g1061
sI140351180567760
g283
sI140351180596496
g1361
sI140351180569488
g1264
sI140351180117392
g1002
sI140351180178896
g0
(g7
g2
Ntp1441
Rp1442
(dp1443
g11
(lp1444
sg15
I00
sg16
I00
sg17
I40
sg18
g19
sg42
S'EcalLaserCorrectionService'
p1445
sg47
g1445
sbsI140351180568144
g0
(g7
g2
Ntp1446
Rp1447
(dp1448
g11
(lp1449
g13
asg15
I00
sg16
I01
sg17
I40
sg18
g19
sg42
S'EcalEndcapGeometryFromDBEP'
p1450
sg13
g0
(g43
g2
Ntp1451
Rp1452
(dp1453
g15
I00
sg24
I01
sg30
I01
sg16
I01
sbsg47
g1450
sbsI140351180226448
g1294
sI140351180596944
g0
(g7
g2
Ntp1454
Rp1455
(dp1456
g11
(lp1457
sg15
I00
sg16
I00
sg17
I40
sg18
g19
sg42
S'EcalElectronicsMappingBuilder'
p1458
sg47
g1458
sbsI140351180117776
g1056
sI140351180597200
g962
sI140351182302928
g301
sI140351180179600
g1153
sI140351181947664
g1115
sI140351180179664
g0
(cFWCore.ParameterSet.Modules
ESPrefer
p1459
g2
Ntp1460
Rp1461
(dp1462
g11
(lp1463
sg15
I00
sg16
I00
sS'_targetLabel'
p1464
g1151
sg17
I73
sg18
g19
sg42
S'es_prefer_hcalHardcode'
p1465
sg47
g1187
sbsI140351180598224
g0
(g7
g2
Ntp1466
Rp1467
(dp1468
g11
(lp1469
g802
ag913
ag13
ag914
asg15
I00
sg802
g0
(g37
g2
Ntp1470
Rp1471
(dp1472
g15
I00
sg24
I01
sg30
g1389
sg16
I01
sbsg16
I01
sg914
g0
(g37
g2
Ntp1473
Rp1474
(dp1475
g15
I00
sg24
I01
sg30
g1400
sg16
I01
sbsg18
S'/cvmfs/cms.cern.ch/slc6_amd64_gcc530/cms/cmssw/CMSSW_8_0_29/python/Geometry/TrackerGeometryBuilder/idealForDigiTrackerGeometryDB_cff.py'
p1476
sg17
I8
sg42
S'idealForDigiTrackerGeometry'
p1477
sg913
g0
(g43
g2
Ntp1478
Rp1479
(dp1480
g15
I00
sg24
I01
sg30
I00
sg16
I00
sbsg13
g0
(g43
g2
Ntp1481
Rp1482
(dp1483
g15
I00
sg24
I01
sg30
I00
sg16
I01
sbsg47
g1032
sbsI140351180548432
g0
(g7
g2
Ntp1484
Rp1485
(dp1486
g11
(lp1487
g1303
aS'compatibiltyWith11'
p1488
asg15
I00
sg16
I00
sg17
I40
sg18
g19
sg1303
g0
(g43
g2
Ntp1489
Rp1490
(dp1491
g15
I00
sg24
I00
sg30
I00
sg16
I00
sbsg1488
g0
(g43
g2
Ntp1492
Rp1493
(dp1494
g15
I00
sg24
I00
sg30
I01
sg16
I00
sbsg42
S'RPCGeometryESModule'
p1495
sg47
g1495
sbsI140351180568976
g9
sI140351180597712
g0
(g7
g2
Ntp1496
Rp1497
(dp1498
g11
(lp1499
g802
asg15
I00
sg802
g0
(g37
g2
Ntp1500
Rp1501
(dp1502
g15
I00
sg24
I01
sg30
g334
sg16
I00
sbsg16
I00
sg17
I40
sg18
g19
sg42
S'hcalDDDSimConstants'
p1503
sg47
S'HcalDDDSimConstantsESModule'
p1504
sbsI140351180280784
g0
(g7
g2
Ntp1505
Rp1506
(dp1507
g11
(lp1508
g807
asg15
I00
sg16
I01
sg17
I40
sg18
g19
sg807
g0
(g821
g55
(lp1509
g0
(g20
g2
Ntp1510
Rp1511
(dp1512
g15
I00
sg24
I01
sg16
I00
sg389
g0
(g37
g2
Ntp1513
Rp1514
(dp1515
g15
I00
sg24
I01
sg30
S'SiPixelQualityFromDbRcd'
p1516
sg16
I00
sbsg830
g0
(g37
g2
Ntp1517
Rp1518
(dp1519
g15
I00
sg24
I01
sg30
g334
sg16
I00
sbsg11
(lp1520
g389
ag830
asbag0
(g20
g2
Ntp1521
Rp1522
(dp1523
g15
I00
sg24
I01
sg16
I00
sg389
g0
(g37
g2
Ntp1524
Rp1525
(dp1526
g15
I00
sg24
I01
sg30
S'SiPixelDetVOffRcd'
p1527
sg16
I00
sbsg830
g0
(g37
g2
Ntp1528
Rp1529
(dp1530
g15
I00
sg24
I01
sg30
g334
sg16
I00
sbsg11
(lp1531
g389
ag830
asbatp1532
Rp1533
(dp1534
g15
I00
sg24
I01
sg16
I00
sg60
I1
sbsg42
S'siPixelQualityESProducer'
p1535
sg47
S'SiPixelQualityESProducer'
p1536
sbsI140351180549456
g1371
sI140351180598032
g1285
sI140351180118864
g0
(g7
g2
Ntp1537
Rp1538
(dp1539
g11
(lp1540
S'version'
p1541
ag945
ag385
asg15
I00
sg16
I01
sg17
I40
sg18
g19
sg385
g0
(g37
g2
Ntp1542
Rp1543
(dp1544
g15
I00
sg24
I00
sg30
S'ParabolicMf'
p1545
sg16
I01
sbsg1541
g0
(g37
g2
Ntp1546
Rp1547
(dp1548
g15
I00
sg24
I01
sg30
S'Parabolic'
p1549
sg16
I00
sbsg945
g0
(g26
g2
Ntp1550
Rp1551
(dp1552
g15
I00
sg24
I01
sg30
I18268
sg16
I01
sbsg42
S'ParabolicParametrizedMagneticFieldProducer'
p1553
sg47
S'AutoParametrizedMagneticFieldProducer'
p1554
sbsI140351180549072
g910
sI140351180599184
g1383
sI140351180225616
g0
(g7
g2
Ntp1555
Rp1556
(dp1557
g11
(lp1558
S'PreFilter'
p1559
ag1039
aS'NSigmaInside'
p1560
asg15
I00
sg16
I00
sg18
g19
sg1039
g0
(g37
g2
Ntp1561
Rp1562
(dp1563
g15
I00
sg24
I01
sg30
S'StandardMatcher'
p1564
sg16
I00
sbsg1559
g0
(g43
g2
Ntp1565
Rp1566
(dp1567
g15
I00
sg24
I01
sg30
I00
sg16
I00
sbsg17
I40
sg1560
g0
(g811
g2
Ntp1568
Rp1569
(dp1570
g15
I00
sg24
I01
sg30
F3.0
sg16
I00
sbsg42
S'SiStripRecHitMatcherESProducer'
p1571
sg47
g1571
sbsI140351180568272
g1269
sI140351180181200
g0
(g7
g2
Ntp1572
Rp1573
(dp1574
g11
(lp1575
S'printDebug'
p1576
ag802
aS'APVGain'
p1577
aS'AutomaticNormalization'
p1578
asg15
I00
sg802
g0
(g37
g2
Ntp1579
Rp1580
(dp1581
g15
I00
sg24
I01
sg30
g334
sg16
I00
sbsg16
I00
sg1578
g0
(g43
g2
Ntp1582
Rp1583
(dp1584
g15
I00
sg24
I01
sg30
I00
sg16
I00
sbsg17
I40
sg1576
g0
(g43
g2
Ntp1585
Rp1586
(dp1587
g15
I00
sg24
I00
sg30
I00
sg16
I00
sbsg18
g19
sg1577
g0
(g821
g55
(lp1588
g0
(g20
g2
Ntp1589
Rp1590
(dp1591
g15
I00
sg24
I01
sg16
I00
sS'Label'
p1592
g0
(g37
g2
Ntp1593
Rp1594
(dp1595
g15
I00
sg24
I00
sg30
g334
sg16
I00
sbsS'Record'
p1596
g0
(g37
g2
Ntp1597
Rp1598
(dp1599
g15
I00
sg24
I01
sg30
S'SiStripApvGainRcd'
p1600
sg16
I00
sbsS'NormalizationFactor'
p1601
g0
(g811
g2
Ntp1602
Rp1603
(dp1604
g15
I00
sg24
I00
sg30
F1.0
sg16
I00
sbsg11
(lp1605
g1596
ag1601
ag1592
asbag0
(g20
g2
Ntp1606
Rp1607
(dp1608
g15
I00
sg24
I01
sg16
I00
sg1592
g0
(g37
g2
Ntp1609
Rp1610
(dp1611
g15
I00
sg24
I00
sg30
g334
sg16
I00
sbsg1596
g0
(g37
g2
Ntp1612
Rp1613
(dp1614
g15
I00
sg24
I01
sg30
S'SiStripApvGain2Rcd'
p1615
sg16
I00
sbsg1601
g0
(g811
g2
Ntp1616
Rp1617
(dp1618
g15
I00
sg24
I00
sg30
F1.0
sg16
I00
sbsg11
(lp1619
g1596
ag1601
ag1592
asbatp1620
Rp1621
(dp1622
g15
I00
sg24
I01
sg16
I00
sg60
I1
sbsg42
S'siStripGainESProducer'
p1623
sg47
S'SiStripGainESProducer'
p1624
sbsI140351180225744
g1355
sI140351182302352
g312
sI140351180179088
g1124
sI140351180568400
g1343
sI140351180570000
g1418
sI140351180224272
g0
(g7
g2
Ntp1625
Rp1626
(dp1627
g11
(lp1628
g1038
ag1039
ag1040
asg15
I00
sg16
I01
sg1040
g0
(g20
g2
Ntp1629
Rp1630
(dp1631
g15
I00
sg24
I01
sS'maxChgOneMIP'
p1632
g0
(g811
g2
Ntp1633
Rp1634
(dp1635
g15
I00
sg24
I01
sg30
F6000.0
sg16
I00
sbsS'mLC_P2'
p1636
g0
(g811
g2
Ntp1637
Rp1638
(dp1639
g15
I00
sg24
I01
sg30
F0.3
sg16
I00
sbsS'mLC_P1'
p1640
g0
(g811
g2
Ntp1641
Rp1642
(dp1643
g15
I00
sg24
I01
sg30
F0.618
sg16
I00
sbsS'mLC_P0'
p1644
g0
(g811
g2
Ntp1645
Rp1646
(dp1647
g15
I00
sg24
I01
sg30
F-0.326
sg16
I00
sbsS'useLegacyError'
p1648
g0
(g43
g2
Ntp1649
Rp1650
(dp1651
g15
I00
sg24
I01
sg30
I00
sg16
I00
sbsS'mTIB_P1'
p1652
g0
(g811
g2
Ntp1653
Rp1654
(dp1655
g15
I00
sg24
I01
sg30
F0.202
sg16
I00
sbsS'mTEC_P1'
p1656
g0
(g811
g2
Ntp1657
Rp1658
(dp1659
g15
I00
sg24
I01
sg30
F0.471
sg16
I00
sbsS'mTEC_P0'
p1660
g0
(g811
g2
Ntp1661
Rp1662
(dp1663
g15
I00
sg24
I01
sg30
F-1.885
sg16
I00
sbsS'mTOB_P0'
p1664
g0
(g811
g2
Ntp1665
Rp1666
(dp1667
g15
I00
sg24
I01
sg30
F-1.026
sg16
I00
sbsS'mTOB_P1'
p1668
g0
(g811
g2
Ntp1669
Rp1670
(dp1671
g15
I00
sg24
I01
sg30
F0.253
sg16
I00
sbsS'mTIB_P0'
p1672
g0
(g811
g2
Ntp1673
Rp1674
(dp1675
g15
I00
sg24
I01
sg30
F-0.742
sg16
I00
sbsg11
(lp1676
g1632
ag1636
ag1640
ag1644
ag1648
ag1656
ag1660
ag1664
ag1668
ag1672
ag1652
aS'mTID_P0'
p1677
aS'mTID_P1'
p1678
asg1677
g0
(g811
g2
Ntp1679
Rp1680
(dp1681
g15
I00
sg24
I01
sg30
F-1.427
sg16
I00
sbsg1678
g0
(g811
g2
Ntp1682
Rp1683
(dp1684
g15
I00
sg24
I01
sg30
F0.433
sg16
I00
sbsg16
I00
sbsg17
I4
sg1039
g0
(g37
g2
Ntp1685
Rp1686
(dp1687
g15
I00
sg24
I01
sg30
S'StripCPEfromTrackAngle'
p1688
sg16
I00
sbsg1038
g0
(g37
g2
Ntp1689
Rp1690
(dp1691
g15
I00
sg24
I01
sg30
g1688
sg16
I00
sbsg18
S'/cvmfs/cms.cern.ch/slc6_amd64_gcc530/cms/cmssw/CMSSW_8_0_29/python/RecoLocalTracker/SiStripRecHitConverter/StripCPEfromTrackAngle_cfi.py'
p1692
sg42
S'StripCPEfromTrackAngleESProducer'
p1693
sg47
g1053
sbsI140351180598928
g0
(g7
g2
Ntp1694
Rp1695
(dp1696
g11
(lp1697
g802
asg15
I00
sg802
g0
(g37
g2
Ntp1698
Rp1699
(dp1700
g15
I00
sg24
I01
sg30
g1400
sg16
I01
sbsg16
I01
sg17
I5
sg18
S'/cvmfs/cms.cern.ch/slc6_amd64_gcc530/cms/cmssw/CMSSW_8_0_29/python/Alignment/CommonAlignmentProducer/fakeForIdealAlignmentProducer_cfi.py'
p1701
sg42
S'fakeForIdealAlignment'
p1702
sg47
S'FakeAlignmentProducer'
p1703
sbsI140351181356752
g1141
sI140351180508944
g1300
sI140351180505936
g1278
sI140351180570512
g1100
sI140351180550096
g997
sI140351180566608
g0
(g7
g2
Ntp1704
Rp1705
(dp1706
g11
(lp1707
sg15
I00
sg16
I00
sg17
I40
sg18
g19
sg42
S'TrackerRecoGeometryESProducer'
p1708
sg47
g1708
sbsI140351180595344
g0
(g7
g2
Ntp1709
Rp1710
(dp1711
g11
(lp1712
sg15
I00
sg16
I00
sg17
I40
sg18
g19
sg42
S'CaloTowerTopologyEP'
p1713
sg47
g1713
sbsI140351180566736
g0
(g7
g2
Ntp1714
Rp1715
(dp1716
g11
(lp1717
g802
asg15
I00
sg802
g0
(g37
g2
Ntp1718
Rp1719
(dp1720
g15
I00
sg24
I01
sg30
g334
sg16
I00
sbsg16
I00
sg17
I40
sg18
g19
sg42
S'trackerTopology'
p1721
sg47
S'TrackerTopologyEP'
p1722
sbsI140351180223824
g376
sI140351180224144
g1035
sI140351180566928
g1338
sI140351180177872
g1190
sI140351180118352
g942
sI140351180595856
g0
(g7
g2
Ntp1723
Rp1724
(dp1725
g11
(lp1726
g13
asg15
I00
sg16
I00
sg17
I40
sg18
g19
sg42
S'ZdcGeometryFromDBEP'
p1727
sg13
g0
(g43
g2
Ntp1728
Rp1729
(dp1730
g15
I00
sg24
I01
sg30
I00
sg16
I00
sbsg47
g1727
sbsI140351180116752
g0
(g7
g2
Ntp1731
Rp1732
(dp1733
g11
(lp1734
g802
ag913
ag13
ag914
asg15
I00
sg802
g0
(g37
g2
Ntp1735
Rp1736
(dp1737
g15
I00
sg24
I01
sg30
g1389
sg16
I01
sbsg16
I01
sg914
g0
(g37
g2
Ntp1738
Rp1739
(dp1740
g15
I00
sg24
I01
sg30
g1400
sg16
I01
sbsg18
S'/cvmfs/cms.cern.ch/slc6_amd64_gcc530/cms/cmssw/CMSSW_8_0_29/python/Geometry/DTGeometryBuilder/idealForDigiDtGeometryDB_cff.py'
p1741
sg17
I8
sg42
S'idealForDigiDTGeometry'
p1742
sg913
g0
(g43
g2
Ntp1743
Rp1744
(dp1745
g15
I00
sg24
I01
sg30
I00
sg16
I00
sbsg13
g0
(g43
g2
Ntp1746
Rp1747
(dp1748
g15
I00
sg24
I01
sg30
I00
sg16
I01
sbsg47
g908
sbsI140351180567312
g992
ssg1713
g1710
sg1623
g1573
sg1571
g1556
sg1495
g1485
sg1742
g1732
sS'_Process__esprefers'
p1749
(dp1750
g1465
g1461
ssg1727
g1724
sS'_Process__schedule'
p1751
Nsg1450
g1447
sg1139
g1141
sS'_Process__outputmodules'
p1752
(dp1753
sS'_Process__analyzers'
p1754
(dp1755
g336
g312
ssS'_Process__InExtendCall'
p1756
I00
sg1445
g1442
sg1465
g1461
sg1458
g1455
sg1477
g1467
sS'_Process__modifiers'
p1757
(tsS'_Process__producers'
p1758
(dp1759
g1275
g1278
ssg1553
g1538
sg1188
g1190
sS'_Process__filters'
p1760
(dp1761
sg939
g930
sS'_Process__looper'
p1762
Nsg1535
g1506
sg1693
g1626
sS'_Process__endpaths'
p1763
g0
(cFWCore.ParameterSet.DictTypes
SortedKeysDict
p1764
c__builtin__
dict
p1765
(dp1766
tp1767
Rp1768
(dp1769
S'list'
p1770
(lp1771
sbsS'_Process__esproducers'
p1772
(dp1773
g281
g283
sg797
g799
sg1445
g1442
sg1708
g1705
sg940
g942
sg1693
g1626
sg982
g984
sg990
g992
sg995
g997
sg1000
g1002
sg1015
g1017
sg1059
g1061
sg1098
g1100
sg1262
g1264
sg1267
g1269
sg1292
g1294
sg1283
g1285
sg1298
g1300
sg1341
g1343
sg1369
g1371
sg1458
g1455
sg1359
g1361
sg1381
g1383
sg1416
g1418
sg374
g376
sg1122
g1124
sg1623
g1573
sg1571
g1556
sg1495
g1485
sg1742
g1732
sg1727
g1724
sg908
g910
sg1450
g1447
sg1353
g1355
sg1535
g1506
sg1477
g1467
sg1713
g1710
sg1553
g1538
sg1033
g1035
sg1503
g1497
sg1336
g1338
sg1721
g1715
sg1054
g1056
sg1702
g1695
sg6
g9
ssg1503
g1497
sS'_Process__paths'
p1774
g0
(g1764
g1765
(dp1775
g298
g301
stp1776
Rp1777
(dp1778
g1770
(lp1779
g298
asbsg1721
g1715
sg1708
g1705
sS'_Process__partialschedules'
p1780
(dp1781
sg1702
g1695
sS'_Process__isStrict'
p1782
I00
sb.