(dp1
S'OriginalConfig'
p2
ccopy_reg
_reconstructor
p3
(cWMCore.Configuration
Configuration
p4
c__builtin__
object
p5
NtRp6
(dp7
S'Site'
p8
g3
(cWMCore.Configuration
ConfigSection
p9
g5
NtRp10
(dp11
S'_internal_skipChecks'
p12
I00
sS'_internal_documentation'
p13
S''
sS'_internal_settings'
p14
c__builtin__
set
p15
((lp16
S'storageSite'
p17
atRp18
sS'_internal_name'
p19
g8
sS'_internal_docstrings'
p20
(dp21
sS'_internal_children'
p22
g15
((ltRp23
sg17
S'T2_BE_IIHE'
p24
sS'_internal_parent_ref'
p25
NsbsS'_internal_sections'
p26
(lp27
S'General'
p28
aS'JobType'
p29
aS'Data'
p30
ag8
aS'User'
p31
aS'Debug'
p32
asg28
g3
(g9
g5
NtRp33
(dp34
g12
I00
sg13
S''
sg14
g15
((lp35
S'transferOutputs'
p36
aS'transferLogs'
p37
aS'requestName'
p38
atRp39
sg19
g28
sg20
(dp40
sg36
I01
sg22
g15
((ltRp41
sg38
S'SingleMuon_Run2016C-07Aug17-v1_AOD'
p42
sg25
Nsg37
I01
sbsS'_internal_webapps'
p43
(lp44
sg31
g3
(g9
g5
NtRp45
(dp46
g12
I00
sg13
S''
sg14
g15
((ltRp47
sg19
g31
sg20
(dp48
sg22
g15
((ltRp49
sg25
NsbsS'_internal_components'
p50
(lp51
sg32
g3
(g9
g5
NtRp52
(dp53
g12
I00
sg13
S''
sg14
g15
((ltRp54
sg19
g32
sg20
(dp55
sg22
g15
((ltRp56
sg25
Nsbsg30
g3
(g9
g5
NtRp57
(dp58
S'inputDataset'
p59
S'/SingleMuon/Run2016C-07Aug17-v1/AOD'
p60
sg12
I00
sS'splitting'
p61
S'FileBased'
p62
sS'unitsPerJob'
p63
I10
sg13
S''
sg14
g15
((lp64
g59
aS'publication'
p65
ag63
ag61
aS'inputDBS'
p66
aS'lumiMask'
p67
atRp68
sg19
g30
sg66
S'global'
p69
sg20
(dp70
sg22
g15
((ltRp71
sg25
Nsg67
S'https://cms-service-dqm.web.cern.ch/cms-service-dqm/CAF/certification/Collisions16/13TeV/ReReco/Final/Cert_271036-284044_13TeV_23Sep2016ReReco_Collisions16_JSON.txt'
p72
sg65
I00
sbsg29
g3
(g9
g5
NtRp73
(dp74
S'outputFiles'
p75
(lp76
S'tuple.root'
p77
asg12
I00
sg13
S''
sg14
g15
((lp78
S'psetName'
p79
aS'pluginName'
p80
ag75
atRp81
sg19
g29
sg20
(dp82
sg80
S'Analysis'
p83
sg22
g15
((ltRp84
sg79
S'ConfFile_cfg.py'
p85
sg25
NsbsbsS'voGroup'
p86
S''
sS'Server'
p87
S'cmsweb.cern.ch'
p88
sS'instance'
p89
S'prod'
p90
sS'RequestName'
p91
V180615_120144:vannerom_crab_SingleMuon_Run2016C-07Aug17-v1_AOD
p92
sS'voRole'
p93
S'NULL'
p94
sS'Port'
p95
S''
s.